target datalayout = "e-m:e-p270:32:32-p271:32:32-p272:64:64-i64:64-i128:128-f80:128-n8:16:32:64-S128"
target triple = "x86_64-unknown-linux-gnu"

%struct.SCSISense = type { i8, i8, i8 }
%struct.VirtIOSCSICommon = type { %struct.VirtIODevice, %struct.VirtIOSCSIConf, i32, i32, ptr, ptr, ptr }
%struct.VirtIODevice = type { %struct.DeviceState, ptr, i8, i8, i16, i64, i64, i64, i64, ptr, i16, i32, i32, ptr, %struct.MemoryListener, i16, i8, i8, i8, i8, i8, i8, i8, i8, i8, ptr, ptr, i8, i8, ptr, ptr, %union.anon.1, %struct.EventNotifier, i8 }
%struct.DeviceState = type { %struct.Object, ptr, ptr, i8, i8, i64, ptr, i32, i8, ptr, %struct.NamedGPIOListHead, %struct.NamedClockListHead, %struct.BusStateHead, i32, i32, i32, %struct.ResettableState, ptr, %struct.MemReentrancyGuard }
%struct.Object = type { ptr, ptr, ptr, i32, ptr }
%struct.NamedGPIOListHead = type { ptr }
%struct.NamedClockListHead = type { ptr }
%struct.BusStateHead = type { ptr }
%struct.ResettableState = type { i32, i8, i8 }
%struct.MemReentrancyGuard = type { i8 }
%struct.MemoryListener = type { ptr, ptr, ptr, ptr, ptr, ptr, ptr, ptr, ptr, ptr, ptr, ptr, ptr, ptr, ptr, ptr, ptr, i32, ptr, ptr, %union.anon, %union.anon.0 }
%union.anon = type { %struct.QTailQLink }
%struct.QTailQLink = type { ptr, ptr }
%union.anon.0 = type { %struct.QTailQLink }
%union.anon.1 = type { %struct.QTailQLink }
%struct.EventNotifier = type { i32, i32, i8 }
%struct.VirtIOSCSIConf = type { i32, i32, i8, i32, i32, ptr, ptr, %struct.CharBackend, i32, ptr }
%struct.CharBackend = type { ptr, ptr, ptr, ptr, ptr, ptr, i32, i32 }
%struct.VirtIOSCSI = type { %struct.VirtIOSCSICommon, %struct.SCSIBus, i32, i8, ptr, %union.anon.3, ptr, i8, i8, i8, i8, i32 }
%struct.SCSIBus = type { %struct.BusState, i32, %struct.SCSISense, ptr, i32 }
%struct.BusState = type { %struct.Object, ptr, ptr, ptr, i32, i8, i8, i32, %union.BusChildHead, %struct.BusStateEntry, %struct.ResettableState }
%union.BusChildHead = type { %struct.QTailQLink }
%struct.BusStateEntry = type { ptr, ptr }
%union.anon.3 = type { %struct.QTailQLink }
%struct.VirtIOSCSIReq = type <{ %struct.VirtQueueElement, ptr, ptr, %struct.QEMUSGList, %struct.QEMUIOVector, %union.anon.6, i32, [4 x i8], ptr, i64, i32, %union.anon.7, %union.anon.8, [4 x i8] }>
%struct.VirtQueueElement = type { i32, i32, i32, i32, i32, ptr, ptr, ptr, ptr }
%struct.QEMUSGList = type { ptr, i32, i32, i64, ptr, ptr }
%struct.QEMUIOVector = type { ptr, i32, %union.anon.4 }
%union.anon.4 = type { %struct.anon }
%struct.anon = type { i32, %struct.iovec }
%struct.iovec = type { ptr, i64 }
%union.anon.6 = type { %struct.QTailQLink }
%union.anon.7 = type { %struct.virtio_scsi_event }
%struct.virtio_scsi_event = type { i32, [8 x i8], i32 }
%union.anon.8 = type { %struct.virtio_scsi_ctrl_tmf_req }
%struct.virtio_scsi_ctrl_tmf_req = type { i32, i32, [8 x i8], i64 }
%struct.SCSIRequest = type { ptr, ptr, ptr, i32, i32, i32, i16, i16, ptr, i64, %struct.SCSICommand, %struct.NotifierList, [252 x i8], i32, i8, i8, i8, i8, ptr, ptr, %union.anon.11 }
%struct.SCSICommand = type { [16 x i8], i32, i64, i64, i32 }
%struct.NotifierList = type { %struct.anon.10 }
%struct.anon.10 = type { ptr }
%union.anon.11 = type { %struct.QTailQLink }
%struct.virtio_scsi_cmd_resp = type { i32, i32, i16, i8, i8, [0 x i8] }

@.str = private unnamed_addr constant [30 x i8] c"../qemu/hw/scsi/virtio-scsi.c\00", align 1
@__func__.virtio_scsi_request_cancelled = private unnamed_addr constant [30 x i8] c"virtio_scsi_request_cancelled\00", align 1

; Function Attrs: nounwind sspstrong uwtable
define internal void @virtio_scsi_request_cancelled(ptr noundef %r) #0 {
entry:
  %r.addr = alloca ptr, align 8
  %req = alloca ptr, align 8
  %tmp = alloca i32, align 4
  %atomic-temp = alloca i32, align 4
  store ptr %r, ptr %r.addr, align 8
  %0 = load ptr, ptr %r.addr, align 8
  %hba_private = getelementptr inbounds %struct.SCSIRequest, ptr %0, i32 0, i32 8
  %1 = load ptr, ptr %hba_private, align 8
  store ptr %1, ptr %req, align 8
  %2 = load ptr, ptr %req, align 8
  %tobool = icmp ne ptr %2, null
  br i1 %tobool, label %if.end, label %if.then

if.then:                                          ; preds = %entry
  br label %return

if.end:                                           ; preds = %entry
  br label %while.cond

while.cond:                                       ; preds = %do.end, %if.end
  br i1 false, label %while.body, label %while.end

while.body:                                       ; preds = %while.cond
  br label %do.body

do.body:                                          ; preds = %while.body
  call void @g_assertion_message_expr(ptr noundef null, ptr noundef @.str, i32 noundef 749, ptr noundef @__func__.virtio_scsi_request_cancelled, ptr noundef null) #13
  unreachable

do.end:                                           ; No predecessors!
  br label %while.cond

while.end:                                        ; preds = %while.cond
  %3 = load ptr, ptr %req, align 8
  %dev = getelementptr inbounds %struct.VirtIOSCSIReq, ptr %3, i32 0, i32 1
  %4 = load ptr, ptr %dev, align 8
  %resetting = getelementptr inbounds %struct.VirtIOSCSI, ptr %4, i32 0, i32 2
  %5 = load atomic i32, ptr %resetting monotonic, align 8
  store i32 %5, ptr %atomic-temp, align 4
  %6 = load i32, ptr %atomic-temp, align 4
  store i32 %6, ptr %tmp, align 4
  %7 = load i32, ptr %tmp, align 4
  %tobool1 = icmp ne i32 %7, 0
  br i1 %tobool1, label %if.then2, label %if.else

if.then2:                                         ; preds = %while.end
  %8 = load ptr, ptr %req, align 8
  %resp = getelementptr inbounds %struct.VirtIOSCSIReq, ptr %8, i32 0, i32 11
  %response = getelementptr inbounds %struct.virtio_scsi_cmd_resp, ptr %resp, i32 0, i32 4
  store i8 4, ptr %response, align 1
  br label %if.end5

if.else:                                          ; preds = %while.end
  %9 = load ptr, ptr %req, align 8
  %resp3 = getelementptr inbounds %struct.VirtIOSCSIReq, ptr %9, i32 0, i32 11
  %response4 = getelementptr inbounds %struct.virtio_scsi_cmd_resp, ptr %resp3, i32 0, i32 4
  store i8 2, ptr %response4, align 1
  br label %if.end5

if.end5:                                          ; preds = %if.else, %if.then2
  %10 = load ptr, ptr %req, align 8
  call void @virtio_scsi_complete_cmd_req(ptr noundef %10)
  br label %return

return:                                           ; preds = %if.end5, %if.then
  ret void
}