; Function Attrs: nounwind sspstrong uwtable
define internal void @virtio_scsi_request_cancelled(ptr noundef readonly captures(none) %r) #0 {
entry:
  %hba_private = getelementptr inbounds nuw i8, ptr %r, i64 40
  %0 = load ptr, ptr %hba_private, align 8
  %tobool.not = icmp eq ptr %0, null
  br i1 %tobool.not, label %return, label %while.end

while.end:                                        ; preds = %entry
  %dev = getelementptr inbounds nuw i8, ptr %0, i64 56
  %1 = load ptr, ptr %dev, align 8
  %resetting = getelementptr inbounds nuw i8, ptr %1, i64 808
  %2 = load atomic i32, ptr %resetting monotonic, align 8
  %tobool1.not = icmp eq i32 %2, 0
  %spec.select = select i1 %tobool1.not, i8 2, i8 4
  %3 = getelementptr inbounds nuw i8, ptr %0, i64 207
  store i8 %spec.select, ptr %3, align 1
  tail call fastcc void @virtio_scsi_complete_cmd_req(ptr noundef nonnull %0)
  br label %return

return:                                           ; preds = %entry, %while.end
  ret void
}